; Function Attrs: mustprogress nounwind uwtable
define dso_local void @_ZN7testing8internal11MatchMatrix9RandomizeEv(ptr noundef nonnull readonly align 8 captures(none) dereferenceable(40) %0) local_unnamed_addr #5 align 2 {
  %2 = load i64, ptr %0, align 8, !tbaa !1798
  %.not = icmp eq i64 %2, 0
  br i1 %.not, label %._crit_edge10, label %.preheader.lr.ph

.preheader.lr.ph:                                 ; preds = %1
  %3 = getelementptr inbounds nuw i8, ptr %0, i64 8
  %4 = getelementptr inbounds nuw i8, ptr %0, i64 16
  %5 = load i64, ptr %3, align 8, !tbaa !1804
  %.not11 = icmp eq i64 %5, 0
  br i1 %.not11, label %._crit_edge10, label %.preheader

.preheader:                                       ; preds = %.preheader.lr.ph, %._crit_edge
  %6 = phi i64 [ %8, %._crit_edge ], [ %2, %.preheader.lr.ph ]
  %7 = phi i64 [ %9, %._crit_edge ], [ %5, %.preheader.lr.ph ]
  %.09 = phi i64 [ %10, %._crit_edge ], [ 0, %.preheader.lr.ph ]
  %.not12 = icmp eq i64 %7, 0
  br i1 %.not12, label %._crit_edge, label %.lr.ph

._crit_edge10:                                    ; preds = %._crit_edge, %.preheader.lr.ph, %1
  ret void

._crit_edge.loopexit:                             ; preds = %.lr.ph
  %.pre = load i64, ptr %0, align 8, !tbaa !1798
  br label %._crit_edge

._crit_edge:                                      ; preds = %._crit_edge.loopexit, %.preheader
  %8 = phi i64 [ %.pre, %._crit_edge.loopexit ], [ %6, %.preheader ]
  %9 = phi i64 [ %21, %._crit_edge.loopexit ], [ 0, %.preheader ]
  %10 = add nuw i64 %.09, 1
  %11 = icmp ult i64 %10, %8
  br i1 %11, label %.preheader, label %._crit_edge10, !llvm.loop !1822

.lr.ph:                                           ; preds = %.preheader, %.lr.ph
  %12 = phi i64 [ %21, %.lr.ph ], [ %7, %.preheader ]
  %.078 = phi i64 [ %20, %.lr.ph ], [ 0, %.preheader ]
  %13 = mul i64 %12, %.09
  %14 = load ptr, ptr %4, align 8, !tbaa !1806
  %15 = getelementptr i8, ptr %14, i64 %13
  %16 = getelementptr i8, ptr %15, i64 %.078
  %17 = tail call i32 @rand() #58
  %18 = trunc i32 %17 to i8
  %19 = and i8 %18, 1
  store i8 %19, ptr %16, align 1, !tbaa !13
  %20 = add nuw i64 %.078, 1
  %21 = load i64, ptr %3, align 8, !tbaa !1804
  %22 = icmp ult i64 %20, %21
  br i1 %22, label %.lr.ph, label %._crit_edge.loopexit, !llvm.loop !1823
}